target datalayout = "e-m:e-p270:32:32-p271:32:32-p272:64:64-i64:64-i128:128-f80:128-n8:16:32:64-S128"
target triple = "x86_64-pc-linux-gnu"

%struct.anon = type { [3 x double] }
%struct._generic_N_Vector = type { ptr, ptr, ptr }
%struct._N_VectorContent_Serial = type { i64, i32, ptr }

; Function Attrs: nounwind uwtable
define internal i32 @res(double noundef %0, ptr noundef %1, ptr noundef %2, ptr noundef %3, ptr noundef %4) #0 {
  %6 = alloca double, align 8
  %7 = alloca ptr, align 8
  %8 = alloca ptr, align 8
  %9 = alloca ptr, align 8
  %10 = alloca ptr, align 8
  %11 = alloca double, align 8
  %12 = alloca double, align 8
  %13 = alloca double, align 8
  %14 = alloca double, align 8
  %15 = alloca double, align 8
  %16 = alloca ptr, align 8
  %17 = alloca ptr, align 8
  %18 = alloca double, align 8
  %19 = alloca double, align 8
  %20 = alloca double, align 8
  store double %0, ptr %6, align 8, !tbaa !18
  store ptr %1, ptr %7, align 8, !tbaa !16
  store ptr %2, ptr %8, align 8, !tbaa !16
  store ptr %3, ptr %9, align 8, !tbaa !16
  store ptr %4, ptr %10, align 8, !tbaa !11
  call void @llvm.lifetime.start.p0(i64 8, ptr %11) #6
  call void @llvm.lifetime.start.p0(i64 8, ptr %12) #6
  call void @llvm.lifetime.start.p0(i64 8, ptr %13) #6
  call void @llvm.lifetime.start.p0(i64 8, ptr %14) #6
  call void @llvm.lifetime.start.p0(i64 8, ptr %15) #6
  call void @llvm.lifetime.start.p0(i64 8, ptr %16) #6
  call void @llvm.lifetime.start.p0(i64 8, ptr %17) #6
  call void @llvm.lifetime.start.p0(i64 8, ptr %18) #6
  call void @llvm.lifetime.start.p0(i64 8, ptr %19) #6
  call void @llvm.lifetime.start.p0(i64 8, ptr %20) #6
  %21 = load ptr, ptr %7, align 8, !tbaa !16
  %22 = getelementptr inbounds nuw %struct._generic_N_Vector, ptr %21, i32 0, i32 0
  %23 = load ptr, ptr %22, align 8, !tbaa !22
  %24 = getelementptr inbounds nuw %struct._N_VectorContent_Serial, ptr %23, i32 0, i32 2
  %25 = load ptr, ptr %24, align 8, !tbaa !25
  %26 = getelementptr inbounds double, ptr %25, i64 0
  %27 = load double, ptr %26, align 8, !tbaa !18
  store double %27, ptr %11, align 8, !tbaa !18
  %28 = load ptr, ptr %7, align 8, !tbaa !16
  %29 = getelementptr inbounds nuw %struct._generic_N_Vector, ptr %28, i32 0, i32 0
  %30 = load ptr, ptr %29, align 8, !tbaa !22
  %31 = getelementptr inbounds nuw %struct._N_VectorContent_Serial, ptr %30, i32 0, i32 2
  %32 = load ptr, ptr %31, align 8, !tbaa !25
  %33 = getelementptr inbounds double, ptr %32, i64 1
  %34 = load double, ptr %33, align 8, !tbaa !18
  store double %34, ptr %12, align 8, !tbaa !18
  %35 = load ptr, ptr %7, align 8, !tbaa !16
  %36 = getelementptr inbounds nuw %struct._generic_N_Vector, ptr %35, i32 0, i32 0
  %37 = load ptr, ptr %36, align 8, !tbaa !22
  %38 = getelementptr inbounds nuw %struct._N_VectorContent_Serial, ptr %37, i32 0, i32 2
  %39 = load ptr, ptr %38, align 8, !tbaa !25
  %40 = getelementptr inbounds double, ptr %39, i64 2
  %41 = load double, ptr %40, align 8, !tbaa !18
  store double %41, ptr %13, align 8, !tbaa !18
  %42 = load ptr, ptr %8, align 8, !tbaa !16
  %43 = getelementptr inbounds nuw %struct._generic_N_Vector, ptr %42, i32 0, i32 0
  %44 = load ptr, ptr %43, align 8, !tbaa !22
  %45 = getelementptr inbounds nuw %struct._N_VectorContent_Serial, ptr %44, i32 0, i32 2
  %46 = load ptr, ptr %45, align 8, !tbaa !25
  %47 = getelementptr inbounds double, ptr %46, i64 0
  %48 = load double, ptr %47, align 8, !tbaa !18
  store double %48, ptr %14, align 8, !tbaa !18
  %49 = load ptr, ptr %8, align 8, !tbaa !16
  %50 = getelementptr inbounds nuw %struct._generic_N_Vector, ptr %49, i32 0, i32 0
  %51 = load ptr, ptr %50, align 8, !tbaa !22
  %52 = getelementptr inbounds nuw %struct._N_VectorContent_Serial, ptr %51, i32 0, i32 2
  %53 = load ptr, ptr %52, align 8, !tbaa !25
  %54 = getelementptr inbounds double, ptr %53, i64 1
  %55 = load double, ptr %54, align 8, !tbaa !18
  store double %55, ptr %15, align 8, !tbaa !18
  %56 = load ptr, ptr %9, align 8, !tbaa !16
  %57 = call ptr @N_VGetArrayPointer(ptr noundef %56)
  store ptr %57, ptr %16, align 8, !tbaa !35
  %58 = load ptr, ptr %10, align 8, !tbaa !11
  store ptr %58, ptr %17, align 8, !tbaa !11
  %59 = load ptr, ptr %17, align 8, !tbaa !11
  %60 = getelementptr inbounds nuw %struct.anon, ptr %59, i32 0, i32 0
  %61 = getelementptr inbounds [3 x double], ptr %60, i64 0, i64 0
  %62 = load double, ptr %61, align 8, !tbaa !18
  store double %62, ptr %18, align 8, !tbaa !18
  %63 = load ptr, ptr %17, align 8, !tbaa !11
  %64 = getelementptr inbounds nuw %struct.anon, ptr %63, i32 0, i32 0
  %65 = getelementptr inbounds [3 x double], ptr %64, i64 0, i64 1
  %66 = load double, ptr %65, align 8, !tbaa !18
  store double %66, ptr %19, align 8, !tbaa !18
  %67 = load ptr, ptr %17, align 8, !tbaa !11
  %68 = getelementptr inbounds nuw %struct.anon, ptr %67, i32 0, i32 0
  %69 = getelementptr inbounds [3 x double], ptr %68, i64 0, i64 2
  %70 = load double, ptr %69, align 8, !tbaa !18
  store double %70, ptr %20, align 8, !tbaa !18
  %71 = load double, ptr %18, align 8, !tbaa !18
  %72 = load double, ptr %11, align 8, !tbaa !18
  %73 = load double, ptr %19, align 8, !tbaa !18
  %74 = load double, ptr %12, align 8, !tbaa !18
  %75 = fmul double %73, %74
  %76 = load double, ptr %13, align 8, !tbaa !18
  %77 = fmul double %75, %76
  %78 = fneg double %77
  %79 = call double @llvm.fmuladd.f64(double %71, double %72, double %78)
  %80 = load ptr, ptr %16, align 8, !tbaa !35
  %81 = getelementptr inbounds double, ptr %80, i64 0
  store double %79, ptr %81, align 8, !tbaa !18
  %82 = load ptr, ptr %16, align 8, !tbaa !35
  %83 = getelementptr inbounds double, ptr %82, i64 0
  %84 = load double, ptr %83, align 8, !tbaa !18
  %85 = fneg double %84
  %86 = load double, ptr %20, align 8, !tbaa !18
  %87 = load double, ptr %12, align 8, !tbaa !18
  %88 = fmul double %86, %87
  %89 = load double, ptr %12, align 8, !tbaa !18
  %90 = call double @llvm.fmuladd.f64(double %88, double %89, double %85)
  %91 = load double, ptr %15, align 8, !tbaa !18
  %92 = fadd double %90, %91
  %93 = load ptr, ptr %16, align 8, !tbaa !35
  %94 = getelementptr inbounds double, ptr %93, i64 1
  store double %92, ptr %94, align 8, !tbaa !18
  %95 = load double, ptr %14, align 8, !tbaa !18
  %96 = load ptr, ptr %16, align 8, !tbaa !35
  %97 = getelementptr inbounds double, ptr %96, i64 0
  %98 = load double, ptr %97, align 8, !tbaa !18
  %99 = fadd double %98, %95
  store double %99, ptr %97, align 8, !tbaa !18
  %100 = load double, ptr %11, align 8, !tbaa !18
  %101 = load double, ptr %12, align 8, !tbaa !18
  %102 = fadd double %100, %101
  %103 = load double, ptr %13, align 8, !tbaa !18
  %104 = fadd double %102, %103
  %105 = fsub double %104, 1.000000e+00
  %106 = load ptr, ptr %16, align 8, !tbaa !35
  %107 = getelementptr inbounds double, ptr %106, i64 2
  store double %105, ptr %107, align 8, !tbaa !18
  call void @llvm.lifetime.end.p0(i64 8, ptr %20) #6
  call void @llvm.lifetime.end.p0(i64 8, ptr %19) #6
  call void @llvm.lifetime.end.p0(i64 8, ptr %18) #6
  call void @llvm.lifetime.end.p0(i64 8, ptr %17) #6
  call void @llvm.lifetime.end.p0(i64 8, ptr %16) #6
  call void @llvm.lifetime.end.p0(i64 8, ptr %15) #6
  call void @llvm.lifetime.end.p0(i64 8, ptr %14) #6
  call void @llvm.lifetime.end.p0(i64 8, ptr %13) #6
  call void @llvm.lifetime.end.p0(i64 8, ptr %12) #6
  call void @llvm.lifetime.end.p0(i64 8, ptr %11) #6
  ret i32 0
}