; Function Attrs: nounwind uwtable
define internal noundef i32 @res(double %0, ptr noundef readonly captures(none) %1, ptr noundef readonly captures(none) %2, ptr noundef %3, ptr noundef readonly captures(none) %4) #0 {
  %6 = load ptr, ptr %1, align 8, !tbaa !13
  %7 = getelementptr inbounds nuw i8, ptr %6, i64 16
  %8 = load ptr, ptr %7, align 8, !tbaa !16
  %9 = load double, ptr %8, align 8, !tbaa !9
  %10 = getelementptr inbounds nuw i8, ptr %8, i64 8
  %11 = load double, ptr %10, align 8, !tbaa !9
  %12 = getelementptr inbounds nuw i8, ptr %8, i64 16
  %13 = load double, ptr %12, align 8, !tbaa !9
  %14 = load ptr, ptr %2, align 8, !tbaa !13
  %15 = getelementptr inbounds nuw i8, ptr %14, i64 16
  %16 = load ptr, ptr %15, align 8, !tbaa !16
  %17 = load double, ptr %16, align 8, !tbaa !9
  %18 = getelementptr inbounds nuw i8, ptr %16, i64 8
  %19 = load double, ptr %18, align 8, !tbaa !9
  %20 = tail call ptr @N_VGetArrayPointer(ptr noundef %3) #12
  %21 = load double, ptr %4, align 8, !tbaa !9
  %22 = getelementptr inbounds nuw i8, ptr %4, i64 8
  %23 = load double, ptr %22, align 8, !tbaa !9
  %24 = getelementptr inbounds nuw i8, ptr %4, i64 16
  %25 = load double, ptr %24, align 8, !tbaa !9
  %26 = fmul double %11, %23
  %27 = fneg double %13
  %28 = fmul double %26, %27
  %29 = tail call double @llvm.fmuladd.f64(double %21, double %9, double %28)
  %30 = fneg double %29
  %31 = fmul double %11, %25
  %32 = tail call double @llvm.fmuladd.f64(double %31, double %11, double %30)
  %33 = fadd double %19, %32
  %34 = getelementptr inbounds nuw i8, ptr %20, i64 8
  store double %33, ptr %34, align 8, !tbaa !9
  %35 = fadd double %17, %29
  store double %35, ptr %20, align 8, !tbaa !9
  %36 = fadd double %9, %11
  %37 = fadd double %36, %13
  %38 = fadd double %37, -1.000000e+00
  %39 = getelementptr inbounds nuw i8, ptr %20, i64 16
  store double %38, ptr %39, align 8, !tbaa !9
  ret i32 0
}